Vbody:before{white-space:pre;font-family:monospace;content:"Error:Undefined variable:\u005c"$greeb\u005c".\u005cA on line 39 of minerva/variables/_variables.scss\u005cA from line 3 of minerva/_minerva.scss\u005cA from line 14 of main.scss"}
p1
.