Vbody:before{white-space:pre;font-family:monospace;content:"Error:Invalid CSS after \u005c".\u005c":expected class name,was \u005c"33\u005c"\u005cA on line 334 of minerva/components/_base-component.scss\u005cA from line 18 of minerva/_minerva.scss\u005cA from line 14 of main.scss"}
p1
.